target datalayout = "e-m:e-p270:32:32-p271:32:32-p272:64:64-i64:64-i128:128-f80:128-n8:16:32:64-S128"
target triple = "x86_64-pc-linux-gnu"

%struct.ARKodeARKStepMemRec = type { ptr, ptr, i32, i32, i32, i32, i32, i32, ptr, ptr, ptr, ptr, ptr, ptr, i32, i32, i32, i32, ptr, ptr, ptr, ptr, i32, ptr, double, double, double, double, i32, double, double, double, double, double, double, i32, i64, i32, i32, i32, ptr, ptr, ptr, ptr, ptr, ptr, i32, ptr, ptr, ptr, ptr, ptr, ptr, i32, i32, i64, i64, i64, i64, i64, ptr, ptr, i32, i32, i32, double, double, ptr, i32, ptr, ptr }

@__func__.ARKStepSetExplicit = private unnamed_addr constant [19 x i8] c"ARKStepSetExplicit\00", align 1
@.str = private unnamed_addr constant [126 x i8] c"generated/home/dtcxzyw/WorkSpace/Projects/compilers/llvm-opt-benchmark/bench/sundials/sundials/src/arkode/arkode_arkstep_io.c\00", align 1
@.str.1 = private unnamed_addr constant [88 x i8] c"Cannot specify that method is explicit without providing a function pointer to fe(t,y).\00", align 1

; Function Attrs: nounwind uwtable
define i32 @ARKStepSetExplicit(ptr noundef %0) #0 {
  %2 = alloca i32, align 4
  %3 = alloca ptr, align 8
  %4 = alloca ptr, align 8
  %5 = alloca ptr, align 8
  %6 = alloca i32, align 4
  %7 = alloca i32, align 4
  store ptr %0, ptr %3, align 8, !tbaa !3
  call void @llvm.lifetime.start.p0(i64 8, ptr %4) #4
  call void @llvm.lifetime.start.p0(i64 8, ptr %5) #4
  call void @llvm.lifetime.start.p0(i64 4, ptr %6) #4
  %8 = load ptr, ptr %3, align 8, !tbaa !3
  %9 = call i32 @arkStep_AccessARKODEStepMem(ptr noundef %8, ptr noundef @__func__.ARKStepSetExplicit, ptr noundef %4, ptr noundef %5)
  store i32 %9, ptr %6, align 4, !tbaa !7
  %10 = load i32, ptr %6, align 4, !tbaa !7
  %11 = icmp ne i32 %10, 0
  br i1 %11, label %12, label %14

12:                                               ; preds = %1
  %13 = load i32, ptr %6, align 4, !tbaa !7
  store i32 %13, ptr %2, align 4
  store i32 1, ptr %7, align 4
  br label %26

14:                                               ; preds = %1
  %15 = load ptr, ptr %5, align 8, !tbaa !9
  %16 = getelementptr inbounds nuw %struct.ARKodeARKStepMemRec, ptr %15, i32 0, i32 0
  %17 = load ptr, ptr %16, align 8, !tbaa !11
  %18 = icmp eq ptr %17, null
  br i1 %18, label %19, label %21

19:                                               ; preds = %14
  %20 = load ptr, ptr %4, align 8, !tbaa !20
  call void (ptr, i32, i32, ptr, ptr, ptr, ...) @arkProcessError(ptr noundef %20, i32 noundef -22, i32 noundef 52, ptr noundef @__func__.ARKStepSetExplicit, ptr noundef @.str, ptr noundef @.str.1)
  store i32 -22, ptr %2, align 4
  store i32 1, ptr %7, align 4
  br label %26

21:                                               ; preds = %14
  %22 = load ptr, ptr %5, align 8, !tbaa !9
  %23 = getelementptr inbounds nuw %struct.ARKodeARKStepMemRec, ptr %22, i32 0, i32 5
  store i32 1, ptr %23, align 4, !tbaa !22
  %24 = load ptr, ptr %5, align 8, !tbaa !9
  %25 = getelementptr inbounds nuw %struct.ARKodeARKStepMemRec, ptr %24, i32 0, i32 6
  store i32 0, ptr %25, align 8, !tbaa !23
  store i32 0, ptr %2, align 4
  store i32 1, ptr %7, align 4
  br label %26

26:                                               ; preds = %21, %19, %12
  call void @llvm.lifetime.end.p0(i64 4, ptr %6) #4
  call void @llvm.lifetime.end.p0(i64 8, ptr %5) #4
  call void @llvm.lifetime.end.p0(i64 8, ptr %4) #4
  %27 = load i32, ptr %2, align 4
  ret i32 %27
}