; Function Attrs: nounwind uwtable
define i32 @ARKStepSetExplicit(ptr noundef %0) local_unnamed_addr #0 {
  %2 = alloca ptr, align 8
  %3 = alloca ptr, align 8
  call void @llvm.lifetime.start.p0(i64 8, ptr nonnull %2) #5
  call void @llvm.lifetime.start.p0(i64 8, ptr nonnull %3) #5
  %4 = call i32 @arkStep_AccessARKODEStepMem(ptr noundef %0, ptr noundef nonnull @__func__.ARKStepSetExplicit, ptr noundef nonnull %2, ptr noundef nonnull %3) #5
  %.not = icmp eq i32 %4, 0
  br i1 %.not, label %5, label %14

5:                                                ; preds = %1
  %6 = load ptr, ptr %3, align 8, !tbaa !3
  %7 = load ptr, ptr %6, align 8, !tbaa !8
  %8 = icmp eq ptr %7, null
  br i1 %8, label %9, label %11

9:                                                ; preds = %5
  %10 = load ptr, ptr %2, align 8, !tbaa !18
  call void (ptr, i32, i32, ptr, ptr, ptr, ...) @arkProcessError(ptr noundef %10, i32 noundef -22, i32 noundef 52, ptr noundef nonnull @__func__.ARKStepSetExplicit, ptr noundef nonnull @.str, ptr noundef nonnull @.str.1) #5
  br label %14

11:                                               ; preds = %5
  %12 = getelementptr inbounds nuw i8, ptr %6, i64 28
  store i32 1, ptr %12, align 4, !tbaa !20
  %13 = getelementptr inbounds nuw i8, ptr %6, i64 32
  store i32 0, ptr %13, align 8, !tbaa !21
  br label %14

14:                                               ; preds = %1, %11, %9
  %.0 = phi i32 [ -22, %9 ], [ 0, %11 ], [ %4, %1 ]
  call void @llvm.lifetime.end.p0(i64 8, ptr nonnull %3) #5
  call void @llvm.lifetime.end.p0(i64 8, ptr nonnull %2) #5
  ret i32 %.0
}